#include <math.h>
#include <stdio.h>
#include <stdlib.h>
#include <string.h>

int main()
{
	char a[256],t;
	int i,j,n;
	scanf("%d",&n);
	for(i=1;i<=n;i++)
	{
		scanf("%s",&a);
	for(j=0;j<strlen(a);j++)
		{
			
			switch(a[j])
			{
			case'A':
				t='T';
				break;
			case'T':
				t='A';
				break;
			case'C':
				t='G';
				break;
			case'G':
				t='C';
				break;
			}
			printf("%c",t);
		}
	printf("\n");
	}
	
	return 0;
}
